target datalayout = "e-m:e-p270:32:32-p271:32:32-p272:64:64-i64:64-i128:128-f80:128-n8:16:32:64-S128"
target triple = "x86_64-pc-linux-gnu"

%struct.sgraph = type { i32, i32, i32, i32, ptr, ptr }
%struct.snode = type { i32, i32, ptr, ptr, i16, i16, [2 x ptr], ptr, i32, i8 }
%struct.sedge = type { double, i32, i32, i32 }

; Function Attrs: nounwind uwtable
define internal void @addEdgeToNode(ptr noundef %0, i32 noundef %1) #0 {
  %3 = alloca ptr, align 8
  %4 = alloca i32, align 4
  store ptr %0, ptr %3, align 8, !tbaa !36
  store i32 %1, ptr %4, align 4, !tbaa !15
  %5 = load i32, ptr %4, align 4, !tbaa !15
  %6 = load ptr, ptr %3, align 8, !tbaa !36
  %7 = getelementptr inbounds nuw %struct.snode, ptr %6, i32 0, i32 7
  %8 = load ptr, ptr %7, align 8, !tbaa !29
  %9 = load ptr, ptr %3, align 8, !tbaa !36
  %10 = getelementptr inbounds nuw %struct.snode, ptr %9, i32 0, i32 4
  %11 = load i16, ptr %10, align 8, !tbaa !17
  %12 = sext i16 %11 to i64
  %13 = getelementptr inbounds i32, ptr %8, i64 %12
  store i32 %5, ptr %13, align 4, !tbaa !15
  %14 = load ptr, ptr %3, align 8, !tbaa !36
  %15 = getelementptr inbounds nuw %struct.snode, ptr %14, i32 0, i32 4
  %16 = load i16, ptr %15, align 8, !tbaa !17
  %17 = add i16 %16, 1
  store i16 %17, ptr %15, align 8, !tbaa !17
  ret void
}

; Function Attrs: nounwind uwtable
define ptr @createSEdge(ptr noundef %0, ptr noundef %1, ptr noundef %2, double noundef %3) #0 {
  %5 = alloca ptr, align 8
  %6 = alloca ptr, align 8
  %7 = alloca ptr, align 8
  %8 = alloca double, align 8
  %9 = alloca ptr, align 8
  %10 = alloca i32, align 4
  store ptr %0, ptr %5, align 8, !tbaa !3
  store ptr %1, ptr %6, align 8, !tbaa !36
  store ptr %2, ptr %7, align 8, !tbaa !36
  store double %3, ptr %8, align 8, !tbaa !38
  call void @llvm.lifetime.start.p0(i64 8, ptr %9) #8
  call void @llvm.lifetime.start.p0(i64 4, ptr %10) #8
  %11 = load ptr, ptr %5, align 8, !tbaa !3
  %12 = getelementptr inbounds nuw %struct.sgraph, ptr %11, i32 0, i32 1
  %13 = load i32, ptr %12, align 4, !tbaa !13
  %14 = add nsw i32 %13, 1
  store i32 %14, ptr %12, align 4, !tbaa !13
  store i32 %13, ptr %10, align 4, !tbaa !15
  %15 = load ptr, ptr %5, align 8, !tbaa !3
  %16 = getelementptr inbounds nuw %struct.sgraph, ptr %15, i32 0, i32 5
  %17 = load ptr, ptr %16, align 8, !tbaa !28
  %18 = load i32, ptr %10, align 4, !tbaa !15
  %19 = sext i32 %18 to i64
  %20 = getelementptr inbounds %struct.sedge, ptr %17, i64 %19
  store ptr %20, ptr %9, align 8, !tbaa !40
  %21 = load ptr, ptr %6, align 8, !tbaa !36
  %22 = getelementptr inbounds nuw %struct.snode, ptr %21, i32 0, i32 8
  %23 = load i32, ptr %22, align 8, !tbaa !37
  %24 = load ptr, ptr %9, align 8, !tbaa !40
  %25 = getelementptr inbounds nuw %struct.sedge, ptr %24, i32 0, i32 2
  store i32 %23, ptr %25, align 4, !tbaa !41
  %26 = load ptr, ptr %7, align 8, !tbaa !36
  %27 = getelementptr inbounds nuw %struct.snode, ptr %26, i32 0, i32 8
  %28 = load i32, ptr %27, align 8, !tbaa !37
  %29 = load ptr, ptr %9, align 8, !tbaa !40
  %30 = getelementptr inbounds nuw %struct.sedge, ptr %29, i32 0, i32 3
  store i32 %28, ptr %30, align 8, !tbaa !43
  %31 = load double, ptr %8, align 8, !tbaa !38
  %32 = load ptr, ptr %9, align 8, !tbaa !40
  %33 = getelementptr inbounds nuw %struct.sedge, ptr %32, i32 0, i32 0
  store double %31, ptr %33, align 8, !tbaa !44
  %34 = load ptr, ptr %9, align 8, !tbaa !40
  %35 = getelementptr inbounds nuw %struct.sedge, ptr %34, i32 0, i32 1
  store i32 0, ptr %35, align 8, !tbaa !45
  %36 = load ptr, ptr %6, align 8, !tbaa !36
  %37 = load i32, ptr %10, align 4, !tbaa !15
  call void @addEdgeToNode(ptr noundef %36, i32 noundef %37)
  %38 = load ptr, ptr %7, align 8, !tbaa !36
  %39 = load i32, ptr %10, align 4, !tbaa !15
  call void @addEdgeToNode(ptr noundef %38, i32 noundef %39)
  %40 = load ptr, ptr %9, align 8, !tbaa !40
  call void @llvm.lifetime.end.p0(i64 4, ptr %10) #8
  call void @llvm.lifetime.end.p0(i64 8, ptr %9) #8
  ret ptr %40
}