; Function Attrs: mustprogress nofree norecurse nosync nounwind willreturn memory(write, argmem: readwrite, inaccessiblemem: none) uwtable
define noundef ptr @createSEdge(ptr noundef captures(none) %0, ptr noundef captures(none) %1, ptr noundef captures(none) %2, double noundef %3) local_unnamed_addr #2 {
  %5 = getelementptr inbounds nuw i8, ptr %0, i64 4
  %6 = load i32, ptr %5, align 4, !tbaa !12
  %7 = add nsw i32 %6, 1
  store i32 %7, ptr %5, align 4, !tbaa !12
  %8 = getelementptr inbounds nuw i8, ptr %0, i64 24
  %9 = load ptr, ptr %8, align 8, !tbaa !27
  %10 = sext i32 %6 to i64
  %11 = getelementptr inbounds %struct.sedge, ptr %9, i64 %10
  %12 = getelementptr inbounds nuw i8, ptr %1, i64 56
  %13 = load i32, ptr %12, align 8, !tbaa !31
  %14 = getelementptr inbounds nuw i8, ptr %11, i64 12
  store i32 %13, ptr %14, align 4, !tbaa !32
  %15 = getelementptr inbounds nuw i8, ptr %2, i64 56
  %16 = load i32, ptr %15, align 8, !tbaa !31
  %17 = getelementptr inbounds nuw i8, ptr %11, i64 16
  store i32 %16, ptr %17, align 8, !tbaa !35
  store double %3, ptr %11, align 8, !tbaa !36
  %18 = getelementptr inbounds nuw i8, ptr %11, i64 8
  store i32 0, ptr %18, align 8, !tbaa !37
  %19 = getelementptr inbounds nuw i8, ptr %1, i64 48
  %20 = load ptr, ptr %19, align 8, !tbaa !28
  %21 = getelementptr inbounds nuw i8, ptr %1, i64 24
  %22 = load i16, ptr %21, align 8, !tbaa !15
  %23 = sext i16 %22 to i64
  %24 = getelementptr inbounds i32, ptr %20, i64 %23
  store i32 %6, ptr %24, align 4, !tbaa !38
  %25 = add i16 %22, 1
  store i16 %25, ptr %21, align 8, !tbaa !15
  %26 = getelementptr inbounds nuw i8, ptr %2, i64 48
  %27 = load ptr, ptr %26, align 8, !tbaa !28
  %28 = getelementptr inbounds nuw i8, ptr %2, i64 24
  %29 = load i16, ptr %28, align 8, !tbaa !15
  %30 = sext i16 %29 to i64
  %31 = getelementptr inbounds i32, ptr %27, i64 %30
  store i32 %6, ptr %31, align 4, !tbaa !38
  %32 = add i16 %29, 1
  store i16 %32, ptr %28, align 8, !tbaa !15
  ret ptr %11
}